target datalayout = "e-m:e-p270:32:32-p271:32:32-p272:64:64-i64:64-i128:128-f80:128-n8:16:32:64-S128"
target triple = "x86_64-pc-linux-gnu"

%struct.ltp_session_id_t = type { i64, i64 }

; Function Attrs: nounwind uwtable
define internal ptr @ltp_session_new_key(ptr noundef %0, i32 noundef %1, ptr noundef %2) #0 {
  %4 = alloca ptr, align 8
  %5 = alloca i32, align 4
  %6 = alloca ptr, align 8
  %7 = alloca ptr, align 8
  %8 = alloca ptr, align 8
  store ptr %0, ptr %4, align 8
  store i32 %1, ptr %5, align 4
  store ptr %2, ptr %6, align 8
  %9 = load ptr, ptr %6, align 8
  store ptr %9, ptr %7, align 8
  %10 = call noalias ptr @g_slice_alloc(i64 noundef 16) #6
  store ptr %10, ptr %8, align 8
  %11 = load ptr, ptr %7, align 8
  %12 = getelementptr inbounds %struct.ltp_session_id_t, ptr %11, i32 0, i32 0
  %13 = load i64, ptr %12, align 8
  %14 = load ptr, ptr %8, align 8
  %15 = getelementptr inbounds %struct.ltp_session_id_t, ptr %14, i32 0, i32 0
  store i64 %13, ptr %15, align 8
  %16 = load ptr, ptr %7, align 8
  %17 = getelementptr inbounds %struct.ltp_session_id_t, ptr %16, i32 0, i32 1
  %18 = load i64, ptr %17, align 8
  %19 = load ptr, ptr %8, align 8
  %20 = getelementptr inbounds %struct.ltp_session_id_t, ptr %19, i32 0, i32 1
  store i64 %18, ptr %20, align 8
  %21 = load ptr, ptr %8, align 8
  ret ptr %21
}