; Function Attrs: nounwind uwtable
define internal noalias noundef ptr @ltp_session_new_key(ptr readnone captures(none) %0, i32 %1, ptr noundef readonly captures(none) %2) #0 {
  %4 = tail call noalias dereferenceable_or_null(16) ptr @g_slice_alloc(i64 noundef 16) #10
  %5 = load i64, ptr %2, align 8
  store i64 %5, ptr %4, align 8
  %6 = getelementptr inbounds nuw i8, ptr %2, i64 8
  %7 = load i64, ptr %6, align 8
  %8 = getelementptr inbounds nuw i8, ptr %4, i64 8
  store i64 %7, ptr %8, align 8
  ret ptr %4
}